; Function Attrs: mustprogress nofree norecurse nosync nounwind willreturn memory(read, inaccessiblemem: none) uwtable
define hidden noundef zeroext i1 @_ZNK5nlsat6solver6is_intEj(ptr nocapture noundef nonnull readonly align 8 dereferenceable(16) %this, i32 noundef %x) local_unnamed_addr #7 align 2 {
entry:
  %0 = load ptr, ptr %this, align 8
  %m_is_int.i = getelementptr inbounds i8, ptr %0, i64 424
  %1 = load ptr, ptr %m_is_int.i, align 8
  %idxprom.i.i = zext i32 %x to i64
  %arrayidx.i.i = getelementptr inbounds i8, ptr %1, i64 %idxprom.i.i
  %2 = load i8, ptr %arrayidx.i.i, align 1
  %3 = and i8 %2, 1
  %tobool.i = icmp ne i8 %3, 0
  ret i1 %tobool.i
}